; Function Attrs: mustprogress nounwind uwtable
define internal noundef zeroext i1 @"_ZNSt17_Function_handlerIFvvEZN4llvm9symbolize12CachedBinary11pushEvictorESt8functionIS0_EE3$_0E10_M_managerERSt9_Any_dataRKS8_St18_Manager_operation"(ptr noundef nonnull align 8 captures(none) dereferenceable(16) %0, ptr noundef nonnull readonly align 8 captures(none) dereferenceable(16) %1, i32 noundef %2) #0 align 2 {
  %.val = load ptr, ptr %1, align 8
  switch i32 %2, label %"_ZNSt14_Function_base13_Base_managerIZN4llvm9symbolize12CachedBinary11pushEvictorESt8functionIFvvEEE3$_0E10_M_managerERSt9_Any_dataRKS9_St18_Manager_operation.exit" [
    i32 1, label %4
    i32 0, label %5
    i32 3, label %28
    i32 2, label %6
  ]

4:                                                ; preds = %3
  store ptr %.val, ptr %0, align 8
  br label %"_ZNSt14_Function_base13_Base_managerIZN4llvm9symbolize12CachedBinary11pushEvictorESt8functionIFvvEEE3$_0E10_M_managerERSt9_Any_dataRKS9_St18_Manager_operation.exit"

5:                                                ; preds = %3
  store ptr null, ptr %0, align 8
  br label %"_ZNSt14_Function_base13_Base_managerIZN4llvm9symbolize12CachedBinary11pushEvictorESt8functionIFvvEEE3$_0E10_M_managerERSt9_Any_dataRKS9_St18_Manager_operation.exit"

6:                                                ; preds = %3
  %7 = tail call noalias noundef nonnull dereferenceable(64) ptr @_Znwm(i64 noundef 64) #20
  %8 = getelementptr inbounds nuw i8, ptr %.val, i64 16
  tail call void @llvm.memset.p0.i64(ptr noundef nonnull align 8 dereferenceable(64) %7, i8 0, i64 32, i1 false)
  %9 = load ptr, ptr %8, align 8
  %.not.i.i.not.i.i.i.i.i = icmp eq ptr %9, null
  br i1 %.not.i.i.not.i.i.i.i.i, label %_ZNSt8functionIFvvEEC2ERKS1_.exit.i.i.i.i, label %10

10:                                               ; preds = %6
  %11 = getelementptr inbounds nuw i8, ptr %7, i64 24
  %12 = getelementptr inbounds nuw i8, ptr %7, i64 16
  %13 = tail call noundef zeroext i1 %9(ptr noundef nonnull align 8 dereferenceable(64) %7, ptr noundef nonnull align 8 dereferenceable(64) %.val, i32 noundef 2) #19
  %14 = getelementptr inbounds nuw i8, ptr %.val, i64 24
  %15 = load ptr, ptr %14, align 8
  store ptr %15, ptr %11, align 8
  %16 = load ptr, ptr %8, align 8
  store ptr %16, ptr %12, align 8
  br label %_ZNSt8functionIFvvEEC2ERKS1_.exit.i.i.i.i

_ZNSt8functionIFvvEEC2ERKS1_.exit.i.i.i.i:        ; preds = %10, %6
  %17 = getelementptr inbounds nuw i8, ptr %7, i64 32
  %18 = getelementptr inbounds nuw i8, ptr %.val, i64 48
  tail call void @llvm.memset.p0.i64(ptr noundef nonnull align 8 dereferenceable(32) %17, i8 0, i64 32, i1 false)
  %19 = load ptr, ptr %18, align 8
  %.not.i.i.not.i3.i.i.i.i = icmp eq ptr %19, null
  br i1 %.not.i.i.not.i3.i.i.i.i, label %"_ZNSt14_Function_base13_Base_managerIZN4llvm9symbolize12CachedBinary11pushEvictorESt8functionIFvvEEE3$_0E15_M_init_functorIRKS7_EEvRSt9_Any_dataOT_.exit.i", label %20

20:                                               ; preds = %_ZNSt8functionIFvvEEC2ERKS1_.exit.i.i.i.i
  %21 = getelementptr inbounds nuw i8, ptr %.val, i64 32
  %22 = getelementptr inbounds nuw i8, ptr %7, i64 56
  %23 = getelementptr inbounds nuw i8, ptr %7, i64 48
  %24 = tail call noundef zeroext i1 %19(ptr noundef nonnull align 8 dereferenceable(32) %17, ptr noundef nonnull align 8 dereferenceable(32) %21, i32 noundef 2) #19
  %25 = getelementptr inbounds nuw i8, ptr %.val, i64 56
  %26 = load ptr, ptr %25, align 8
  store ptr %26, ptr %22, align 8
  %27 = load ptr, ptr %18, align 8
  store ptr %27, ptr %23, align 8
  br label %"_ZNSt14_Function_base13_Base_managerIZN4llvm9symbolize12CachedBinary11pushEvictorESt8functionIFvvEEE3$_0E15_M_init_functorIRKS7_EEvRSt9_Any_dataOT_.exit.i"

"_ZNSt14_Function_base13_Base_managerIZN4llvm9symbolize12CachedBinary11pushEvictorESt8functionIFvvEEE3$_0E15_M_init_functorIRKS7_EEvRSt9_Any_dataOT_.exit.i": ; preds = %20, %_ZNSt8functionIFvvEEC2ERKS1_.exit.i.i.i.i
  store ptr %7, ptr %0, align 8
  br label %"_ZNSt14_Function_base13_Base_managerIZN4llvm9symbolize12CachedBinary11pushEvictorESt8functionIFvvEEE3$_0E10_M_managerERSt9_Any_dataRKS9_St18_Manager_operation.exit"

28:                                               ; preds = %3
  %.val6.i = load ptr, ptr %0, align 8
  %29 = icmp eq ptr %.val6.i, null
  br i1 %29, label %"_ZNSt14_Function_base13_Base_managerIZN4llvm9symbolize12CachedBinary11pushEvictorESt8functionIFvvEEE3$_0E10_M_managerERSt9_Any_dataRKS9_St18_Manager_operation.exit", label %30

30:                                               ; preds = %28
  %31 = getelementptr inbounds nuw i8, ptr %.val6.i, i64 48
  %32 = load ptr, ptr %31, align 8
  %.not.i.i.i.i.i = icmp eq ptr %32, null
  br i1 %.not.i.i.i.i.i, label %_ZNSt8functionIFvvEED2Ev.exit.i.i.i, label %33

33:                                               ; preds = %30
  %34 = getelementptr inbounds nuw i8, ptr %.val6.i, i64 32
  %35 = tail call noundef zeroext i1 %32(ptr noundef nonnull align 8 dereferenceable(32) %34, ptr noundef nonnull align 8 dereferenceable(32) %34, i32 noundef 3) #19
  br label %_ZNSt8functionIFvvEED2Ev.exit.i.i.i

_ZNSt8functionIFvvEED2Ev.exit.i.i.i:              ; preds = %33, %30
  %36 = getelementptr inbounds nuw i8, ptr %.val6.i, i64 16
  %37 = load ptr, ptr %36, align 8
  %.not.i.i1.i.i.i = icmp eq ptr %37, null
  br i1 %.not.i.i1.i.i.i, label %"_ZZN4llvm9symbolize12CachedBinary11pushEvictorESt8functionIFvvEEEN3$_0D2Ev.exit.i.i", label %38

38:                                               ; preds = %_ZNSt8functionIFvvEED2Ev.exit.i.i.i
  %39 = tail call noundef zeroext i1 %37(ptr noundef nonnull align 8 dereferenceable(64) %.val6.i, ptr noundef nonnull align 8 dereferenceable(64) %.val6.i, i32 noundef 3) #19
  br label %"_ZZN4llvm9symbolize12CachedBinary11pushEvictorESt8functionIFvvEEEN3$_0D2Ev.exit.i.i"

"_ZZN4llvm9symbolize12CachedBinary11pushEvictorESt8functionIFvvEEEN3$_0D2Ev.exit.i.i": ; preds = %38, %_ZNSt8functionIFvvEED2Ev.exit.i.i.i
  tail call void @_ZdlPvm(ptr noundef nonnull %.val6.i, i64 noundef 64) #22
  br label %"_ZNSt14_Function_base13_Base_managerIZN4llvm9symbolize12CachedBinary11pushEvictorESt8functionIFvvEEE3$_0E10_M_managerERSt9_Any_dataRKS9_St18_Manager_operation.exit"

"_ZNSt14_Function_base13_Base_managerIZN4llvm9symbolize12CachedBinary11pushEvictorESt8functionIFvvEEE3$_0E10_M_managerERSt9_Any_dataRKS9_St18_Manager_operation.exit": ; preds = %3, %"_ZZN4llvm9symbolize12CachedBinary11pushEvictorESt8functionIFvvEEEN3$_0D2Ev.exit.i.i", %28, %"_ZNSt14_Function_base13_Base_managerIZN4llvm9symbolize12CachedBinary11pushEvictorESt8functionIFvvEEE3$_0E15_M_init_functorIRKS7_EEvRSt9_Any_dataOT_.exit.i", %5, %4
  ret i1 false
}